target datalayout = "e-m:e-p270:32:32-p271:32:32-p272:64:64-i64:64-i128:128-f80:128-n8:16:32:64-S128"
target triple = "x86_64-pc-linux-gnu"

%"struct.Yosys::RTLIL::IdString" = type { i32 }
%"class.Yosys::hashlib::dict.167" = type <{ %"class.std::vector.5", %"class.std::vector.168", %"struct.Yosys::hashlib::hash_ops", [7 x i8] }>
%"class.std::vector.5" = type { %"struct.std::_Vector_base.6" }
%"struct.std::_Vector_base.6" = type { %"struct.std::_Vector_base<int, std::allocator<int>>::_Vector_impl" }
%"struct.std::_Vector_base<int, std::allocator<int>>::_Vector_impl" = type { %"struct.std::_Vector_base<int, std::allocator<int>>::_Vector_impl_data" }
%"struct.std::_Vector_base<int, std::allocator<int>>::_Vector_impl_data" = type { ptr, ptr, ptr }
%"class.std::vector.168" = type { %"struct.std::_Vector_base.169" }
%"struct.std::_Vector_base.169" = type { %"struct.std::_Vector_base<Yosys::hashlib::dict<Yosys::RTLIL::IdString, void (*)(Yosys::RTLIL::Module *, Yosys::RTLIL::Cell *)>::entry_t, std::allocator<Yosys::hashlib::dict<Yosys::RTLIL::IdString, void (*)(Yosys::RTLIL::Module *, Yosys::RTLIL::Cell *)>::entry_t>>::_Vector_impl" }
%"struct.std::_Vector_base<Yosys::hashlib::dict<Yosys::RTLIL::IdString, void (*)(Yosys::RTLIL::Module *, Yosys::RTLIL::Cell *)>::entry_t, std::allocator<Yosys::hashlib::dict<Yosys::RTLIL::IdString, void (*)(Yosys::RTLIL::Module *, Yosys::RTLIL::Cell *)>::entry_t>>::_Vector_impl" = type { %"struct.std::_Vector_base<Yosys::hashlib::dict<Yosys::RTLIL::IdString, void (*)(Yosys::RTLIL::Module *, Yosys::RTLIL::Cell *)>::entry_t, std::allocator<Yosys::hashlib::dict<Yosys::RTLIL::IdString, void (*)(Yosys::RTLIL::Module *, Yosys::RTLIL::Cell *)>::entry_t>>::_Vector_impl_data" }
%"struct.std::_Vector_base<Yosys::hashlib::dict<Yosys::RTLIL::IdString, void (*)(Yosys::RTLIL::Module *, Yosys::RTLIL::Cell *)>::entry_t, std::allocator<Yosys::hashlib::dict<Yosys::RTLIL::IdString, void (*)(Yosys::RTLIL::Module *, Yosys::RTLIL::Cell *)>::entry_t>>::_Vector_impl_data" = type { ptr, ptr, ptr }
%"struct.Yosys::hashlib::hash_ops" = type { i8 }
%"struct.Yosys::RTLIL::Cell" = type { %"struct.Yosys::RTLIL::AttrObject", i32, ptr, %"struct.Yosys::RTLIL::IdString", %"struct.Yosys::RTLIL::IdString", %"class.Yosys::hashlib::dict.15", %"class.Yosys::hashlib::dict" }
%"struct.Yosys::RTLIL::AttrObject" = type { %"class.Yosys::hashlib::dict" }
%"class.Yosys::hashlib::dict.15" = type <{ %"class.std::vector.5", %"class.std::vector.16", %"struct.Yosys::hashlib::hash_ops", [7 x i8] }>
%"class.std::vector.16" = type { %"struct.std::_Vector_base.17" }
%"struct.std::_Vector_base.17" = type { %"struct.std::_Vector_base<Yosys::hashlib::dict<Yosys::RTLIL::IdString, Yosys::RTLIL::SigSpec>::entry_t, std::allocator<Yosys::hashlib::dict<Yosys::RTLIL::IdString, Yosys::RTLIL::SigSpec>::entry_t>>::_Vector_impl" }
%"struct.std::_Vector_base<Yosys::hashlib::dict<Yosys::RTLIL::IdString, Yosys::RTLIL::SigSpec>::entry_t, std::allocator<Yosys::hashlib::dict<Yosys::RTLIL::IdString, Yosys::RTLIL::SigSpec>::entry_t>>::_Vector_impl" = type { %"struct.std::_Vector_base<Yosys::hashlib::dict<Yosys::RTLIL::IdString, Yosys::RTLIL::SigSpec>::entry_t, std::allocator<Yosys::hashlib::dict<Yosys::RTLIL::IdString, Yosys::RTLIL::SigSpec>::entry_t>>::_Vector_impl_data" }
%"struct.std::_Vector_base<Yosys::hashlib::dict<Yosys::RTLIL::IdString, Yosys::RTLIL::SigSpec>::entry_t, std::allocator<Yosys::hashlib::dict<Yosys::RTLIL::IdString, Yosys::RTLIL::SigSpec>::entry_t>>::_Vector_impl_data" = type { ptr, ptr, ptr }
%"class.Yosys::hashlib::dict" = type <{ %"class.std::vector.5", %"class.std::vector.10", %"struct.Yosys::hashlib::hash_ops", [7 x i8] }>
%"class.std::vector.10" = type { %"struct.std::_Vector_base.11" }
%"struct.std::_Vector_base.11" = type { %"struct.std::_Vector_base<Yosys::hashlib::dict<Yosys::RTLIL::IdString, Yosys::RTLIL::Const>::entry_t, std::allocator<Yosys::hashlib::dict<Yosys::RTLIL::IdString, Yosys::RTLIL::Const>::entry_t>>::_Vector_impl" }
%"struct.std::_Vector_base<Yosys::hashlib::dict<Yosys::RTLIL::IdString, Yosys::RTLIL::Const>::entry_t, std::allocator<Yosys::hashlib::dict<Yosys::RTLIL::IdString, Yosys::RTLIL::Const>::entry_t>>::_Vector_impl" = type { %"struct.std::_Vector_base<Yosys::hashlib::dict<Yosys::RTLIL::IdString, Yosys::RTLIL::Const>::entry_t, std::allocator<Yosys::hashlib::dict<Yosys::RTLIL::IdString, Yosys::RTLIL::Const>::entry_t>>::_Vector_impl_data" }
%"struct.std::_Vector_base<Yosys::hashlib::dict<Yosys::RTLIL::IdString, Yosys::RTLIL::Const>::entry_t, std::allocator<Yosys::hashlib::dict<Yosys::RTLIL::IdString, Yosys::RTLIL::Const>::entry_t>>::_Vector_impl_data" = type { ptr, ptr, ptr }

@__dso_handle = external hidden global i8
@_ZZN5Yosys9simplemapEPNS_5RTLIL6ModuleEPNS0_4CellEE7mappers = internal global %"class.Yosys::hashlib::dict.167" zeroinitializer, align 8
@_ZGVZN5Yosys9simplemapEPNS_5RTLIL6ModuleEPNS0_4CellEE7mappers = internal global i64 0, align 8
@_ZZN5Yosys9simplemapEPNS_5RTLIL6ModuleEPNS0_4CellEE19initialized_mappers = internal global i8 0, align 1

; Function Attrs: mustprogress nounwind uwtable
define linkonce_odr void @_ZNSt15__new_allocatorIN5Yosys7hashlib4dictINS0_5RTLIL8IdStringEPFvPNS3_6ModuleEPNS3_4CellEENS1_8hash_opsIS4_EEE7entry_tEEC2Ev(ptr noundef nonnull align 1 dereferenceable(1) %0) unnamed_addr #5 comdat align 2 {
  %2 = alloca ptr, align 8
  store ptr %0, ptr %2, align 8
  ret void
}

; Function Attrs: mustprogress nounwind uwtable
define linkonce_odr void @_ZNSt15__new_allocatorIiEC2Ev(ptr noundef nonnull align 1 dereferenceable(1) %0) unnamed_addr #5 comdat align 2 {
  %2 = alloca ptr, align 8
  store ptr %0, ptr %2, align 8
  ret void
}

; Function Attrs: mustprogress nounwind uwtable
define linkonce_odr void @_ZNSt12_Vector_baseIN5Yosys7hashlib4dictINS0_5RTLIL8IdStringEPFvPNS3_6ModuleEPNS3_4CellEENS1_8hash_opsIS4_EEE7entry_tESaISE_EE17_Vector_impl_dataC2Ev(ptr noundef nonnull align 8 dereferenceable(24) %0) unnamed_addr #5 comdat align 2 {
  %2 = alloca ptr, align 8
  store ptr %0, ptr %2, align 8
  %3 = load ptr, ptr %2, align 8
  %4 = getelementptr inbounds %"struct.std::_Vector_base<Yosys::hashlib::dict<Yosys::RTLIL::IdString, void (*)(Yosys::RTLIL::Module *, Yosys::RTLIL::Cell *)>::entry_t, std::allocator<Yosys::hashlib::dict<Yosys::RTLIL::IdString, void (*)(Yosys::RTLIL::Module *, Yosys::RTLIL::Cell *)>::entry_t>>::_Vector_impl_data", ptr %3, i32 0, i32 0
  store ptr null, ptr %4, align 8
  %5 = getelementptr inbounds %"struct.std::_Vector_base<Yosys::hashlib::dict<Yosys::RTLIL::IdString, void (*)(Yosys::RTLIL::Module *, Yosys::RTLIL::Cell *)>::entry_t, std::allocator<Yosys::hashlib::dict<Yosys::RTLIL::IdString, void (*)(Yosys::RTLIL::Module *, Yosys::RTLIL::Cell *)>::entry_t>>::_Vector_impl_data", ptr %3, i32 0, i32 1
  store ptr null, ptr %5, align 8
  %6 = getelementptr inbounds %"struct.std::_Vector_base<Yosys::hashlib::dict<Yosys::RTLIL::IdString, void (*)(Yosys::RTLIL::Module *, Yosys::RTLIL::Cell *)>::entry_t, std::allocator<Yosys::hashlib::dict<Yosys::RTLIL::IdString, void (*)(Yosys::RTLIL::Module *, Yosys::RTLIL::Cell *)>::entry_t>>::_Vector_impl_data", ptr %3, i32 0, i32 2
  store ptr null, ptr %6, align 8
  ret void
}

; Function Attrs: mustprogress nounwind uwtable
define linkonce_odr void @_ZNSaIN5Yosys7hashlib4dictINS_5RTLIL8IdStringEPFvPNS2_6ModuleEPNS2_4CellEENS0_8hash_opsIS3_EEE7entry_tEEC2Ev(ptr noundef nonnull align 1 dereferenceable(1) %0) unnamed_addr #5 comdat align 2 {
  %2 = alloca ptr, align 8
  store ptr %0, ptr %2, align 8
  %3 = load ptr, ptr %2, align 8
  call void @_ZNSt15__new_allocatorIN5Yosys7hashlib4dictINS0_5RTLIL8IdStringEPFvPNS3_6ModuleEPNS3_4CellEENS1_8hash_opsIS4_EEE7entry_tEEC2Ev(ptr noundef nonnull align 1 dereferenceable(1) %3) #3
  ret void
}

; Function Attrs: mustprogress nounwind uwtable
define linkonce_odr void @_ZNSt12_Vector_baseIiSaIiEE17_Vector_impl_dataC2Ev(ptr noundef nonnull align 8 dereferenceable(24) %0) unnamed_addr #5 comdat align 2 {
  %2 = alloca ptr, align 8
  store ptr %0, ptr %2, align 8
  %3 = load ptr, ptr %2, align 8
  %4 = getelementptr inbounds %"struct.std::_Vector_base<int, std::allocator<int>>::_Vector_impl_data", ptr %3, i32 0, i32 0
  store ptr null, ptr %4, align 8
  %5 = getelementptr inbounds %"struct.std::_Vector_base<int, std::allocator<int>>::_Vector_impl_data", ptr %3, i32 0, i32 1
  store ptr null, ptr %5, align 8
  %6 = getelementptr inbounds %"struct.std::_Vector_base<int, std::allocator<int>>::_Vector_impl_data", ptr %3, i32 0, i32 2
  store ptr null, ptr %6, align 8
  ret void
}

; Function Attrs: mustprogress nounwind uwtable
define linkonce_odr void @_ZNSaIiEC2Ev(ptr noundef nonnull align 1 dereferenceable(1) %0) unnamed_addr #5 comdat align 2 {
  %2 = alloca ptr, align 8
  store ptr %0, ptr %2, align 8
  %3 = load ptr, ptr %2, align 8
  call void @_ZNSt15__new_allocatorIiEC2Ev(ptr noundef nonnull align 1 dereferenceable(1) %3) #3
  ret void
}

; Function Attrs: mustprogress nounwind uwtable
define linkonce_odr void @_ZNSt12_Vector_baseIN5Yosys7hashlib4dictINS0_5RTLIL8IdStringEPFvPNS3_6ModuleEPNS3_4CellEENS1_8hash_opsIS4_EEE7entry_tESaISE_EE12_Vector_implC2Ev(ptr noundef nonnull align 8 dereferenceable(24) %0) unnamed_addr #5 comdat align 2 {
  %2 = alloca ptr, align 8
  store ptr %0, ptr %2, align 8
  %3 = load ptr, ptr %2, align 8
  call void @_ZNSaIN5Yosys7hashlib4dictINS_5RTLIL8IdStringEPFvPNS2_6ModuleEPNS2_4CellEENS0_8hash_opsIS3_EEE7entry_tEEC2Ev(ptr noundef nonnull align 1 dereferenceable(1) %3) #3
  call void @_ZNSt12_Vector_baseIN5Yosys7hashlib4dictINS0_5RTLIL8IdStringEPFvPNS3_6ModuleEPNS3_4CellEENS1_8hash_opsIS4_EEE7entry_tESaISE_EE17_Vector_impl_dataC2Ev(ptr noundef nonnull align 8 dereferenceable(24) %3) #3
  ret void
}

; Function Attrs: mustprogress nounwind uwtable
define linkonce_odr void @_ZNSt12_Vector_baseIiSaIiEE12_Vector_implC2Ev(ptr noundef nonnull align 8 dereferenceable(24) %0) unnamed_addr #5 comdat align 2 {
  %2 = alloca ptr, align 8
  store ptr %0, ptr %2, align 8
  %3 = load ptr, ptr %2, align 8
  call void @_ZNSaIiEC2Ev(ptr noundef nonnull align 1 dereferenceable(1) %3) #3
  call void @_ZNSt12_Vector_baseIiSaIiEE17_Vector_impl_dataC2Ev(ptr noundef nonnull align 8 dereferenceable(24) %3) #3
  ret void
}

; Function Attrs: mustprogress nounwind uwtable
define linkonce_odr void @_ZNSt12_Vector_baseIN5Yosys7hashlib4dictINS0_5RTLIL8IdStringEPFvPNS3_6ModuleEPNS3_4CellEENS1_8hash_opsIS4_EEE7entry_tESaISE_EEC2Ev(ptr noundef nonnull align 8 dereferenceable(24) %0) unnamed_addr #5 comdat align 2 {
  %2 = alloca ptr, align 8
  store ptr %0, ptr %2, align 8
  %3 = load ptr, ptr %2, align 8
  %4 = getelementptr inbounds %"struct.std::_Vector_base.169", ptr %3, i32 0, i32 0
  call void @_ZNSt12_Vector_baseIN5Yosys7hashlib4dictINS0_5RTLIL8IdStringEPFvPNS3_6ModuleEPNS3_4CellEENS1_8hash_opsIS4_EEE7entry_tESaISE_EE12_Vector_implC2Ev(ptr noundef nonnull align 8 dereferenceable(24) %4) #3
  ret void
}

; Function Attrs: mustprogress nounwind uwtable
define linkonce_odr void @_ZNSt12_Vector_baseIiSaIiEEC2Ev(ptr noundef nonnull align 8 dereferenceable(24) %0) unnamed_addr #5 comdat align 2 {
  %2 = alloca ptr, align 8
  store ptr %0, ptr %2, align 8
  %3 = load ptr, ptr %2, align 8
  %4 = getelementptr inbounds %"struct.std::_Vector_base.6", ptr %3, i32 0, i32 0
  call void @_ZNSt12_Vector_baseIiSaIiEE12_Vector_implC2Ev(ptr noundef nonnull align 8 dereferenceable(24) %4) #3
  ret void
}

; Function Attrs: mustprogress nounwind uwtable
define linkonce_odr void @_ZNSt6vectorIN5Yosys7hashlib4dictINS0_5RTLIL8IdStringEPFvPNS3_6ModuleEPNS3_4CellEENS1_8hash_opsIS4_EEE7entry_tESaISE_EEC2Ev(ptr noundef nonnull align 8 dereferenceable(24) %0) unnamed_addr #5 comdat align 2 {
  %2 = alloca ptr, align 8
  store ptr %0, ptr %2, align 8
  %3 = load ptr, ptr %2, align 8
  call void @_ZNSt12_Vector_baseIN5Yosys7hashlib4dictINS0_5RTLIL8IdStringEPFvPNS3_6ModuleEPNS3_4CellEENS1_8hash_opsIS4_EEE7entry_tESaISE_EEC2Ev(ptr noundef nonnull align 8 dereferenceable(24) %3) #3
  ret void
}

; Function Attrs: mustprogress nounwind uwtable
define linkonce_odr void @_ZNSt6vectorIiSaIiEEC2Ev(ptr noundef nonnull align 8 dereferenceable(24) %0) unnamed_addr #5 comdat align 2 {
  %2 = alloca ptr, align 8
  store ptr %0, ptr %2, align 8
  %3 = load ptr, ptr %2, align 8
  call void @_ZNSt12_Vector_baseIiSaIiEEC2Ev(ptr noundef nonnull align 8 dereferenceable(24) %3) #3
  ret void
}

; Function Attrs: mustprogress nounwind uwtable
define linkonce_odr void @_ZN5Yosys7hashlib4dictINS_5RTLIL8IdStringEPFvPNS2_6ModuleEPNS2_4CellEENS0_8hash_opsIS3_EEEC2Ev(ptr noundef nonnull align 8 dereferenceable(49) %0) unnamed_addr #5 comdat align 2 {
  %2 = alloca ptr, align 8
  store ptr %0, ptr %2, align 8
  %3 = load ptr, ptr %2, align 8
  %4 = getelementptr inbounds %"class.Yosys::hashlib::dict.167", ptr %3, i32 0, i32 0
  call void @_ZNSt6vectorIiSaIiEEC2Ev(ptr noundef nonnull align 8 dereferenceable(24) %4) #3
  %5 = getelementptr inbounds %"class.Yosys::hashlib::dict.167", ptr %3, i32 0, i32 1
  call void @_ZNSt6vectorIN5Yosys7hashlib4dictINS0_5RTLIL8IdStringEPFvPNS3_6ModuleEPNS3_4CellEENS1_8hash_opsIS4_EEE7entry_tESaISE_EEC2Ev(ptr noundef nonnull align 8 dereferenceable(24) %5) #3
  ret void
}

; Function Attrs: mustprogress uwtable
define void @_ZN5Yosys9simplemapEPNS_5RTLIL6ModuleEPNS0_4CellE(ptr noundef %0, ptr noundef %1) #4 personality ptr @__gxx_personality_v0 {
  %3 = alloca ptr, align 8
  %4 = alloca ptr, align 8
  %5 = alloca ptr, align 8
  %6 = alloca i32, align 4
  store ptr %0, ptr %3, align 8
  store ptr %1, ptr %4, align 8
  %7 = load atomic i8, ptr @_ZGVZN5Yosys9simplemapEPNS_5RTLIL6ModuleEPNS0_4CellEE7mappers acquire, align 8
  %8 = icmp eq i8 %7, 0
  br i1 %8, label %9, label %15, !prof !8

9:                                                ; preds = %2
  %10 = call i32 @__cxa_guard_acquire(ptr @_ZGVZN5Yosys9simplemapEPNS_5RTLIL6ModuleEPNS0_4CellEE7mappers) #3
  %11 = icmp ne i32 %10, 0
  br i1 %11, label %12, label %15

12:                                               ; preds = %9
  invoke void @_ZN5Yosys7hashlib4dictINS_5RTLIL8IdStringEPFvPNS2_6ModuleEPNS2_4CellEENS0_8hash_opsIS3_EEEC2Ev(ptr noundef nonnull align 8 dereferenceable(49) @_ZZN5Yosys9simplemapEPNS_5RTLIL6ModuleEPNS0_4CellEE7mappers)
          to label %13 unwind label %19

13:                                               ; preds = %12
  %14 = call i32 @__cxa_atexit(ptr @_ZN5Yosys7hashlib4dictINS_5RTLIL8IdStringEPFvPNS2_6ModuleEPNS2_4CellEENS0_8hash_opsIS3_EEED2Ev, ptr @_ZZN5Yosys9simplemapEPNS_5RTLIL6ModuleEPNS0_4CellEE7mappers, ptr @__dso_handle) #3
  call void @__cxa_guard_release(ptr @_ZGVZN5Yosys9simplemapEPNS_5RTLIL6ModuleEPNS0_4CellEE7mappers) #3
  br label %15

15:                                               ; preds = %13, %9, %2
  %16 = load i8, ptr @_ZZN5Yosys9simplemapEPNS_5RTLIL6ModuleEPNS0_4CellEE19initialized_mappers, align 1
  %17 = trunc i8 %16 to i1
  br i1 %17, label %23, label %18

18:                                               ; preds = %15
  call void @_ZN5Yosys21simplemap_get_mappersERNS_7hashlib4dictINS_5RTLIL8IdStringEPFvPNS2_6ModuleEPNS2_4CellEENS0_8hash_opsIS3_EEEE(ptr noundef nonnull align 8 dereferenceable(49) @_ZZN5Yosys9simplemapEPNS_5RTLIL6ModuleEPNS0_4CellEE7mappers)
  store i8 1, ptr @_ZZN5Yosys9simplemapEPNS_5RTLIL6ModuleEPNS0_4CellEE19initialized_mappers, align 1
  br label %23

19:                                               ; preds = %12
  %20 = landingpad { ptr, i32 }
          cleanup
  %21 = extractvalue { ptr, i32 } %20, 0
  store ptr %21, ptr %5, align 8
  %22 = extractvalue { ptr, i32 } %20, 1
  store i32 %22, ptr %6, align 4
  call void @__cxa_guard_abort(ptr @_ZGVZN5Yosys9simplemapEPNS_5RTLIL6ModuleEPNS0_4CellEE7mappers) #3
  br label %30

23:                                               ; preds = %18, %15
  %24 = load ptr, ptr %4, align 8
  %25 = getelementptr inbounds %"struct.Yosys::RTLIL::Cell", ptr %24, i32 0, i32 4
  %26 = call noundef nonnull align 8 dereferenceable(8) ptr @_ZN5Yosys7hashlib4dictINS_5RTLIL8IdStringEPFvPNS2_6ModuleEPNS2_4CellEENS0_8hash_opsIS3_EEE2atERKS3_(ptr noundef nonnull align 8 dereferenceable(49) @_ZZN5Yosys9simplemapEPNS_5RTLIL6ModuleEPNS0_4CellEE7mappers, ptr noundef nonnull align 4 dereferenceable(4) %25)
  %27 = load ptr, ptr %26, align 8
  %28 = load ptr, ptr %3, align 8
  %29 = load ptr, ptr %4, align 8
  call void %27(ptr noundef %28, ptr noundef %29)
  ret void

30:                                               ; preds = %19
  %31 = load ptr, ptr %5, align 8
  %32 = load i32, ptr %6, align 4
  %33 = insertvalue { ptr, i32 } poison, ptr %31, 0
  %34 = insertvalue { ptr, i32 } %33, i32 %32, 1
  resume { ptr, i32 } %34
}