; Function Attrs: mustprogress uwtable
define void @_ZN5Yosys9simplemapEPNS_5RTLIL6ModuleEPNS0_4CellE(ptr noundef %0, ptr noundef %1) local_unnamed_addr #3 personality ptr @__gxx_personality_v0 {
  %3 = load atomic i8, ptr @_ZGVZN5Yosys9simplemapEPNS_5RTLIL6ModuleEPNS0_4CellEE7mappers acquire, align 8
  %4 = icmp eq i8 %3, 0
  br i1 %4, label %5, label %9, !prof !9

5:                                                ; preds = %2
  %6 = tail call i32 @__cxa_guard_acquire(ptr nonnull @_ZGVZN5Yosys9simplemapEPNS_5RTLIL6ModuleEPNS0_4CellEE7mappers) #17
  %.not = icmp eq i32 %6, 0
  br i1 %.not, label %9, label %7

7:                                                ; preds = %5
  tail call void @llvm.memset.p0.i64(ptr noundef nonnull align 8 dereferenceable(48) @_ZZN5Yosys9simplemapEPNS_5RTLIL6ModuleEPNS0_4CellEE7mappers, i8 0, i64 48, i1 false)
  %8 = tail call i32 @__cxa_atexit(ptr nonnull @_ZN5Yosys7hashlib4dictINS_5RTLIL8IdStringEPFvPNS2_6ModuleEPNS2_4CellEENS0_8hash_opsIS3_EEED2Ev, ptr nonnull @_ZZN5Yosys9simplemapEPNS_5RTLIL6ModuleEPNS0_4CellEE7mappers, ptr nonnull @__dso_handle) #17
  tail call void @__cxa_guard_release(ptr nonnull @_ZGVZN5Yosys9simplemapEPNS_5RTLIL6ModuleEPNS0_4CellEE7mappers) #17
  br label %9

9:                                                ; preds = %7, %5, %2
  %.b3 = load i1, ptr @_ZZN5Yosys9simplemapEPNS_5RTLIL6ModuleEPNS0_4CellEE19initialized_mappers, align 1
  br i1 %.b3, label %11, label %10

10:                                               ; preds = %9
  tail call void @_ZN5Yosys21simplemap_get_mappersERNS_7hashlib4dictINS_5RTLIL8IdStringEPFvPNS2_6ModuleEPNS2_4CellEENS0_8hash_opsIS3_EEEE(ptr noundef nonnull align 8 dereferenceable(49) @_ZZN5Yosys9simplemapEPNS_5RTLIL6ModuleEPNS0_4CellEE7mappers)
  store i1 true, ptr @_ZZN5Yosys9simplemapEPNS_5RTLIL6ModuleEPNS0_4CellEE19initialized_mappers, align 1
  br label %11

11:                                               ; preds = %10, %9
  %12 = getelementptr inbounds i8, ptr %1, i64 76
  %13 = tail call noundef nonnull align 8 dereferenceable(8) ptr @_ZN5Yosys7hashlib4dictINS_5RTLIL8IdStringEPFvPNS2_6ModuleEPNS2_4CellEENS0_8hash_opsIS3_EEE2atERKS3_(ptr noundef nonnull align 8 dereferenceable(49) @_ZZN5Yosys9simplemapEPNS_5RTLIL6ModuleEPNS0_4CellEE7mappers, ptr noundef nonnull align 4 dereferenceable(4) %12)
  %14 = load ptr, ptr %13, align 8
  tail call void %14(ptr noundef %0, ptr noundef %1)
  ret void
}